; Function Attrs: nounwind sspstrong uwtable
define internal noundef i64 @ossl_ts_req_set_algorithm(i64 noundef %0, i64 noundef returned %1) #0 {
  %3 = alloca i64, align 8
  %4 = tail call ptr @rb_check_typeddata(i64 noundef %0, ptr noundef nonnull @ossl_ts_req_type) #7
  %.not = icmp eq ptr %4, null
  br i1 %.not, label %5, label %7

5:                                                ; preds = %2
  %6 = load i64, ptr @rb_eRuntimeError, align 8, !tbaa !6
  tail call void (i64, ptr, ...) @ossl_raise(i64 noundef %6, ptr noundef nonnull @.str.57) #8
  unreachable

7:                                                ; preds = %2
  call void @llvm.lifetime.start.p0(i64 8, ptr nonnull %3)
  store i64 %1, ptr %3, align 8, !tbaa !6
  %8 = call i64 @rb_string_value(ptr noundef nonnull %3) #7
  %9 = load i64, ptr %3, align 8, !tbaa !6
  %10 = inttoptr i64 %9 to ptr
  %11 = load i64, ptr %10, align 8, !tbaa !32, !noalias !63
  %12 = and i64 %11, 8192
  %.not.i.i.i = icmp eq i64 %12, 0
  %13 = getelementptr inbounds nuw i8, ptr %10, i64 24
  br i1 %.not.i.i.i, label %RSTRING_PTR.exit.i, label %14

14:                                               ; preds = %7
  %.sroa.2.0.copyload.i.i = load ptr, ptr %13, align 8
  br label %RSTRING_PTR.exit.i

RSTRING_PTR.exit.i:                               ; preds = %14, %7
  %.sroa.2.0.i.i = phi ptr [ %.sroa.2.0.copyload.i.i, %14 ], [ %13, %7 ]
  %15 = call ptr @OBJ_txt2obj(ptr noundef %.sroa.2.0.i.i, i32 noundef 0) #7
  %.not.i = icmp eq ptr %15, null
  br i1 %.not.i, label %16, label %obj_to_asn1obj.exit

16:                                               ; preds = %RSTRING_PTR.exit.i
  %17 = load i64, ptr %3, align 8, !tbaa !6
  %18 = inttoptr i64 %17 to ptr
  %19 = load i64, ptr %18, align 8, !tbaa !32, !noalias !66
  %20 = and i64 %19, 8192
  %.not.i.i5.i = icmp eq i64 %20, 0
  %21 = getelementptr inbounds nuw i8, ptr %18, i64 24
  br i1 %.not.i.i5.i, label %23, label %22

22:                                               ; preds = %16
  %.sroa.2.0.copyload.i6.i = load ptr, ptr %21, align 8
  br label %23

23:                                               ; preds = %22, %16
  %.sroa.2.0.i7.i = phi ptr [ %.sroa.2.0.copyload.i6.i, %22 ], [ %21, %16 ]
  %24 = call ptr @OBJ_txt2obj(ptr noundef %.sroa.2.0.i7.i, i32 noundef 1) #7
  %.not4.i = icmp eq ptr %24, null
  br i1 %.not4.i, label %25, label %obj_to_asn1obj.exit

25:                                               ; preds = %23
  %26 = load i64, ptr @eASN1Error, align 8, !tbaa !6
  call void (i64, ptr, ...) @ossl_raise(i64 noundef %26, ptr noundef nonnull @.str.73) #8
  unreachable

obj_to_asn1obj.exit:                              ; preds = %RSTRING_PTR.exit.i, %23
  %.011.i = phi ptr [ %24, %23 ], [ %15, %RSTRING_PTR.exit.i ]
  call void @llvm.lifetime.end.p0(i64 8, ptr nonnull %3)
  %27 = call ptr @TS_REQ_get_msg_imprint(ptr noundef nonnull %4) #7
  %28 = call ptr @TS_MSG_IMPRINT_get_algo(ptr noundef %27) #7
  %29 = call i32 @X509_ALGOR_set0(ptr noundef %28, ptr noundef nonnull %.011.i, i32 noundef 5, ptr noundef null) #7
  %.not8 = icmp eq i32 %29, 0
  br i1 %.not8, label %30, label %32

30:                                               ; preds = %obj_to_asn1obj.exit
  call void @ASN1_OBJECT_free(ptr noundef nonnull %.011.i) #7
  %31 = load i64, ptr @eTimestampError, align 8, !tbaa !6
  call void (i64, ptr, ...) @ossl_raise(i64 noundef %31, ptr noundef nonnull @.str.72) #8
  unreachable

32:                                               ; preds = %obj_to_asn1obj.exit
  ret i64 %1
}